; Function Attrs: mustprogress uwtable
define void @_ZN5arrow8internal14FileDescriptor19CloseFromDestructorEi(i32 noundef %0) local_unnamed_addr #3 align 2 personality ptr @__gxx_personality_v0 {
  %2 = alloca %"class.arrow::Status", align 8
  %3 = alloca %"class.std::__cxx11::basic_string", align 8
  %4 = alloca %"class.std::allocator", align 1
  call void @llvm.lifetime.start.p0(i64 8, ptr nonnull %2) #38
  %5 = tail call i32 @close(i32 noundef %0), !noalias !310
  %6 = icmp eq i32 %5, -1
  br i1 %6, label %_ZN5arrow8internal9FileCloseEi.exit, label %_ZN5arrow6StatusD2Ev.exit8

_ZN5arrow8internal9FileCloseEi.exit:              ; preds = %1
  call void @_ZN5arrow6Status8FromArgsIJRA19_KcEEES0_NS_10StatusCodeEDpOT_(ptr dead_on_unwind nonnull writable sret(%"class.arrow::Status") align 8 %2, i8 noundef signext 5, ptr noundef nonnull align 1 dereferenceable(19) @.str.15)
  %.pr = load ptr, ptr %2, align 8, !tbaa !89
  %7 = icmp eq ptr %.pr, null
  br i1 %7, label %_ZN5arrow6StatusD2Ev.exit8, label %8, !prof !100

8:                                                ; preds = %_ZN5arrow8internal9FileCloseEi.exit
  call void @llvm.lifetime.start.p0(i64 32, ptr nonnull %3) #38
  call void @llvm.lifetime.start.p0(i64 1, ptr nonnull %4) #38
  invoke void @_ZNSt7__cxx1112basic_stringIcSt11char_traitsIcESaIcEEC2IS3_EEPKcRKS3_(ptr noundef nonnull align 8 dereferenceable(32) %3, ptr noundef nonnull @.str.6, ptr noundef nonnull align 1 dereferenceable(1) %4)
          to label %9 unwind label %19

9:                                                ; preds = %8
  invoke void @_ZNK5arrow6Status4WarnERKNSt7__cxx1112basic_stringIcSt11char_traitsIcESaIcEEE(ptr noundef nonnull align 8 dereferenceable(8) %2, ptr noundef nonnull align 8 dereferenceable(32) %3)
          to label %10 unwind label %21

10:                                               ; preds = %9
  %11 = load ptr, ptr %3, align 8, !tbaa !11
  %12 = getelementptr inbounds nuw i8, ptr %3, i64 16
  %13 = icmp eq ptr %11, %12
  br i1 %13, label %_ZNKSt7__cxx1112basic_stringIcSt11char_traitsIcESaIcEE11_M_is_localEv.exit.thread.i.i, label %_ZNKSt7__cxx1112basic_stringIcSt11char_traitsIcESaIcEE11_M_is_localEv.exit.i.i

_ZNKSt7__cxx1112basic_stringIcSt11char_traitsIcESaIcEE11_M_is_localEv.exit.thread.i.i: ; preds = %10
  %14 = getelementptr inbounds nuw i8, ptr %3, i64 8
  %15 = load i64, ptr %14, align 8, !tbaa !14
  %16 = icmp ult i64 %15, 16
  call void @llvm.assume(i1 %16)
  br label %37

_ZNKSt7__cxx1112basic_stringIcSt11char_traitsIcESaIcEE11_M_is_localEv.exit.i.i: ; preds = %10
  %17 = load i64, ptr %12, align 8, !tbaa !13
  %18 = add i64 %17, 1
  call void @_ZdlPvm(ptr noundef %11, i64 noundef %18) #41
  br label %37

19:                                               ; preds = %8
  %20 = landingpad { ptr, i32 }
          cleanup
  br label %_ZNSt7__cxx1112basic_stringIcSt11char_traitsIcESaIcEED2Ev.exit6

21:                                               ; preds = %9
  %22 = landingpad { ptr, i32 }
          cleanup
  %23 = load ptr, ptr %3, align 8, !tbaa !11
  %24 = getelementptr inbounds nuw i8, ptr %3, i64 16
  %25 = icmp eq ptr %23, %24
  br i1 %25, label %_ZNKSt7__cxx1112basic_stringIcSt11char_traitsIcESaIcEE11_M_is_localEv.exit.thread.i.i5, label %_ZNKSt7__cxx1112basic_stringIcSt11char_traitsIcESaIcEE11_M_is_localEv.exit.i.i4

_ZNKSt7__cxx1112basic_stringIcSt11char_traitsIcESaIcEE11_M_is_localEv.exit.thread.i.i5: ; preds = %21
  %26 = getelementptr inbounds nuw i8, ptr %3, i64 8
  %27 = load i64, ptr %26, align 8, !tbaa !14
  %28 = icmp ult i64 %27, 16
  call void @llvm.assume(i1 %28)
  br label %_ZNSt7__cxx1112basic_stringIcSt11char_traitsIcESaIcEED2Ev.exit6

_ZNKSt7__cxx1112basic_stringIcSt11char_traitsIcESaIcEE11_M_is_localEv.exit.i.i4: ; preds = %21
  %29 = load i64, ptr %24, align 8, !tbaa !13
  %30 = add i64 %29, 1
  call void @_ZdlPvm(ptr noundef %23, i64 noundef %30) #41
  br label %_ZNSt7__cxx1112basic_stringIcSt11char_traitsIcESaIcEED2Ev.exit6

_ZNSt7__cxx1112basic_stringIcSt11char_traitsIcESaIcEED2Ev.exit6: ; preds = %_ZNKSt7__cxx1112basic_stringIcSt11char_traitsIcESaIcEE11_M_is_localEv.exit.i.i4, %_ZNKSt7__cxx1112basic_stringIcSt11char_traitsIcESaIcEE11_M_is_localEv.exit.thread.i.i5, %19
  %.pn = phi { ptr, i32 } [ %20, %19 ], [ %22, %_ZNKSt7__cxx1112basic_stringIcSt11char_traitsIcESaIcEE11_M_is_localEv.exit.thread.i.i5 ], [ %22, %_ZNKSt7__cxx1112basic_stringIcSt11char_traitsIcESaIcEE11_M_is_localEv.exit.i.i4 ]
  call void @llvm.lifetime.end.p0(i64 1, ptr nonnull %4) #38
  call void @llvm.lifetime.end.p0(i64 32, ptr nonnull %3) #38
  %31 = load ptr, ptr %2, align 8, !tbaa !89
  %.not.i = icmp eq ptr %31, null
  br i1 %.not.i, label %_ZN5arrow6StatusD2Ev.exit, label %32, !prof !92

32:                                               ; preds = %_ZNSt7__cxx1112basic_stringIcSt11char_traitsIcESaIcEED2Ev.exit6
  %33 = getelementptr inbounds nuw i8, ptr %31, i64 1
  %34 = load i8, ptr %33, align 1, !tbaa !93, !range !98, !noundef !99
  %35 = trunc nuw i8 %34 to i1
  br i1 %35, label %_ZN5arrow6StatusD2Ev.exit, label %36

36:                                               ; preds = %32
  call void @_ZN5arrow6Status11DeleteStateEv(ptr noundef nonnull align 8 dereferenceable(8) %2) #38
  br label %_ZN5arrow6StatusD2Ev.exit

_ZN5arrow6StatusD2Ev.exit:                        ; preds = %_ZNSt7__cxx1112basic_stringIcSt11char_traitsIcESaIcEED2Ev.exit6, %32, %36
  call void @llvm.lifetime.end.p0(i64 8, ptr nonnull %2) #38
  resume { ptr, i32 } %.pn

37:                                               ; preds = %_ZNKSt7__cxx1112basic_stringIcSt11char_traitsIcESaIcEE11_M_is_localEv.exit.i.i, %_ZNKSt7__cxx1112basic_stringIcSt11char_traitsIcESaIcEE11_M_is_localEv.exit.thread.i.i
  call void @llvm.lifetime.end.p0(i64 1, ptr nonnull %4) #38
  call void @llvm.lifetime.end.p0(i64 32, ptr nonnull %3) #38
  %.pr9 = load ptr, ptr %2, align 8, !tbaa !89
  %.not.i7 = icmp eq ptr %.pr9, null
  br i1 %.not.i7, label %_ZN5arrow6StatusD2Ev.exit8, label %38, !prof !121

38:                                               ; preds = %37
  %39 = getelementptr inbounds nuw i8, ptr %.pr9, i64 1
  %40 = load i8, ptr %39, align 1, !tbaa !93, !range !98, !noundef !99
  %41 = trunc nuw i8 %40 to i1
  br i1 %41, label %_ZN5arrow6StatusD2Ev.exit8, label %42

42:                                               ; preds = %38
  call void @_ZN5arrow6Status11DeleteStateEv(ptr noundef nonnull align 8 dereferenceable(8) %2) #38
  br label %_ZN5arrow6StatusD2Ev.exit8

_ZN5arrow6StatusD2Ev.exit8:                       ; preds = %1, %_ZN5arrow8internal9FileCloseEi.exit, %37, %38, %42
  call void @llvm.lifetime.end.p0(i64 8, ptr nonnull %2) #38
  ret void
}